; Function Attrs: mustprogress uwtable
define noundef zeroext i1 @_ZN32pxrInternal_v0_24__pxrReserved__16UsdGeomBBoxCache34ComputePointInstanceRelativeBoundsERKNS_21UsdGeomPointInstancerEPKlmRKNS_7UsdPrimEPNS_8GfBBox3dE(ptr noundef nonnull align 8 dereferenceable(522) %0, ptr noundef nonnull align 8 dereferenceable(24) %1, ptr noundef %2, i64 noundef %3, ptr noundef nonnull align 8 dereferenceable(32) %4, ptr noundef %5) local_unnamed_addr #0 align 2 personality ptr @__gxx_personality_v0 {
  %7 = alloca %"class.pxrInternal_v0_24__pxrReserved__::GfMatrix4d", align 8
  %8 = alloca %"class.pxrInternal_v0_24__pxrReserved__::UsdPrim", align 8
  %9 = alloca %"class.pxrInternal_v0_24__pxrReserved__::GfMatrix4d", align 8
  %10 = alloca %"class.pxrInternal_v0_24__pxrReserved__::GfMatrix4d", align 8
  %11 = alloca %"class.pxrInternal_v0_24__pxrReserved__::GfMatrix4d", align 8
  %12 = getelementptr inbounds nuw i8, ptr %0, i64 400
  %13 = getelementptr inbounds nuw i8, ptr %1, i64 8
  %14 = getelementptr inbounds nuw i8, ptr %1, i64 16
  call void @_ZN32pxrInternal_v0_24__pxrReserved__9UsdObjectC2ERKNS_18Usd_PrimDataHandleERKNS_7SdfPathE(ptr noundef nonnull align 8 dereferenceable(32) %8, ptr noundef nonnull align 8 dereferenceable(8) %13, ptr noundef nonnull align 4 dereferenceable(8) %14)
  invoke void @_ZN32pxrInternal_v0_24__pxrReserved__17UsdGeomXformCache24GetLocalToWorldTransformERKNS_7UsdPrimE(ptr dead_on_unwind nonnull writable sret(%"class.pxrInternal_v0_24__pxrReserved__::GfMatrix4d") align 8 %7, ptr noundef nonnull align 8 dereferenceable(64) %12, ptr noundef nonnull align 8 dereferenceable(32) %8)
          to label %15 unwind label %51

15:                                               ; preds = %6
  %16 = getelementptr inbounds nuw i8, ptr %8, i64 24
  %17 = load ptr, ptr %16, align 8
  %18 = ptrtoint ptr %17 to i64
  %19 = and i64 %18, 7
  %.not.i.i.i.i = icmp eq i64 %19, 0
  br i1 %.not.i.i.i.i, label %_ZN32pxrInternal_v0_24__pxrReserved__7TfTokenD2Ev.exit.i.i, label %20

20:                                               ; preds = %15
  %21 = and i64 %18, -8
  %22 = inttoptr i64 %21 to ptr
  %23 = atomicrmw sub ptr %22, i32 2 release, align 4
  br label %_ZN32pxrInternal_v0_24__pxrReserved__7TfTokenD2Ev.exit.i.i

_ZN32pxrInternal_v0_24__pxrReserved__7TfTokenD2Ev.exit.i.i: ; preds = %20, %15
  %24 = getelementptr inbounds nuw i8, ptr %8, i64 16
  %25 = load i32, ptr %24, align 8
  %.not.i.i1.i.i = icmp eq i32 %25, 0
  br i1 %.not.i.i1.i.i, label %_ZN32pxrInternal_v0_24__pxrReserved__7SdfPathD2Ev.exit.i.i, label %26

26:                                               ; preds = %_ZN32pxrInternal_v0_24__pxrReserved__7TfTokenD2Ev.exit.i.i
  %27 = and i32 %25, 255
  %28 = lshr i32 %25, 8
  %29 = zext nneg i32 %27 to i64
  %30 = getelementptr inbounds nuw [257 x ptr], ptr @_ZN32pxrInternal_v0_24__pxrReserved__8Sdf_PoolINS_15Sdf_PathPrimTagELj24ELj8ELj16384EE13_regionStartsE, i64 0, i64 %29
  %31 = load ptr, ptr %30, align 8
  %32 = mul nuw nsw i32 %28, 24
  %33 = zext nneg i32 %32 to i64
  %34 = getelementptr inbounds nuw i8, ptr %31, i64 %33
  %35 = getelementptr inbounds nuw i8, ptr %34, i64 8
  %36 = atomicrmw sub ptr %35, i32 1 seq_cst, align 4
  %37 = and i32 %36, 2147483647
  %38 = icmp eq i32 %37, 1
  br i1 %38, label %39, label %_ZN32pxrInternal_v0_24__pxrReserved__7SdfPathD2Ev.exit.i.i

39:                                               ; preds = %26
  invoke void @_ZNK32pxrInternal_v0_24__pxrReserved__12Sdf_PathNode8_DestroyEv(ptr noundef nonnull align 8 dereferenceable(16) %34)
          to label %_ZN32pxrInternal_v0_24__pxrReserved__7SdfPathD2Ev.exit.i.i unwind label %40

40:                                               ; preds = %39
  %41 = landingpad { ptr, i32 }
          catch ptr null
  %42 = extractvalue { ptr, i32 } %41, 0
  call void @__clang_call_terminate(ptr %42) #26
  unreachable

_ZN32pxrInternal_v0_24__pxrReserved__7SdfPathD2Ev.exit.i.i: ; preds = %39, %26, %_ZN32pxrInternal_v0_24__pxrReserved__7TfTokenD2Ev.exit.i.i
  %43 = getelementptr inbounds nuw i8, ptr %8, i64 8
  %44 = load ptr, ptr %43, align 8
  %.not.i.i.i.i.i = icmp eq ptr %44, null
  br i1 %.not.i.i.i.i.i, label %_ZN32pxrInternal_v0_24__pxrReserved__7UsdPrimD2Ev.exit, label %45

45:                                               ; preds = %_ZN32pxrInternal_v0_24__pxrReserved__7SdfPathD2Ev.exit.i.i
  %46 = getelementptr inbounds nuw i8, ptr %44, i64 48
  %47 = atomicrmw sub ptr %46, i64 1 release, align 8
  %.not1.i.i.i.i.i = icmp eq i64 %47, 1
  br i1 %.not1.i.i.i.i.i, label %48, label %_ZN32pxrInternal_v0_24__pxrReserved__7UsdPrimD2Ev.exit

48:                                               ; preds = %45
  call void @_ZN32pxrInternal_v0_24__pxrReserved__12Usd_PrimDataD1Ev(ptr noundef nonnull align 8 dereferenceable(64) %44) #15
  call void @_ZdlPvm(ptr noundef nonnull %44, i64 noundef 64) #25
  br label %_ZN32pxrInternal_v0_24__pxrReserved__7UsdPrimD2Ev.exit

_ZN32pxrInternal_v0_24__pxrReserved__7UsdPrimD2Ev.exit: ; preds = %_ZN32pxrInternal_v0_24__pxrReserved__7SdfPathD2Ev.exit.i.i, %45, %48
  call void @_ZN32pxrInternal_v0_24__pxrReserved__17UsdGeomXformCache24GetLocalToWorldTransformERKNS_7UsdPrimE(ptr dead_on_unwind nonnull writable sret(%"class.pxrInternal_v0_24__pxrReserved__::GfMatrix4d") align 8 %9, ptr noundef nonnull align 8 dereferenceable(64) %12, ptr noundef nonnull align 8 dereferenceable(32) %4)
  call void @_ZNK32pxrInternal_v0_24__pxrReserved__10GfMatrix4d10GetInverseEPdd(ptr dead_on_unwind nonnull writable sret(%"class.pxrInternal_v0_24__pxrReserved__::GfMatrix4d") align 8 %11, ptr noundef nonnull align 8 dereferenceable(128) %9, ptr noundef null, double noundef 0.000000e+00)
  call void @llvm.memcpy.p0.p0.i64(ptr noundef nonnull align 8 dereferenceable(128) %10, ptr noundef nonnull align 8 dereferenceable(128) %11, i64 128, i1 false)
  %49 = call noundef nonnull align 8 dereferenceable(128) ptr @_ZN32pxrInternal_v0_24__pxrReserved__10GfMatrix4dmLERKS0_(ptr noundef nonnull align 8 dereferenceable(128) %10, ptr noundef nonnull align 8 dereferenceable(128) %7)
  %50 = call noundef zeroext i1 @_ZN32pxrInternal_v0_24__pxrReserved__16UsdGeomBBoxCache33_ComputePointInstanceBoundsHelperERKNS_21UsdGeomPointInstancerEPKlmRKNS_10GfMatrix4dEPNS_8GfBBox3dE(ptr noundef nonnull align 8 dereferenceable(522) %0, ptr noundef nonnull align 8 dereferenceable(24) %1, ptr noundef %2, i64 noundef %3, ptr noundef nonnull align 8 dereferenceable(128) %10, ptr noundef %5)
  ret i1 %50

51:                                               ; preds = %6
  %52 = landingpad { ptr, i32 }
          cleanup
  call void @_ZN32pxrInternal_v0_24__pxrReserved__7UsdPrimD2Ev(ptr noundef nonnull align 8 dereferenceable(32) %8) #15
  resume { ptr, i32 } %52
}